target datalayout = "e-m:e-p270:32:32-p271:32:32-p272:64:64-i64:64-i128:128-f80:128-n8:16:32:64-S128"
target triple = "x86_64-unknown-linux-gnu"

%class.btSimulationIslandManager = type <{ ptr, %class.btUnionFind, %class.btAlignedObjectArray.0, %class.btAlignedObjectArray.4, i8, [7 x i8] }>
%class.btUnionFind = type { %class.btAlignedObjectArray }
%class.btAlignedObjectArray = type <{ %class.btAlignedAllocator, [3 x i8], i32, i32, [4 x i8], ptr, i8, [7 x i8] }>
%class.btAlignedAllocator = type { i8 }
%class.btAlignedObjectArray.0 = type <{ %class.btAlignedAllocator.1, [3 x i8], i32, i32, [4 x i8], ptr, i8, [7 x i8] }>
%class.btAlignedAllocator.1 = type { i8 }
%class.btAlignedObjectArray.4 = type <{ %class.btAlignedAllocator.5, [3 x i8], i32, i32, [4 x i8], ptr, i8, [7 x i8] }>
%class.btAlignedAllocator.5 = type { i8 }
%class.btVector3 = type { [4 x float] }
%class.btCollisionWorld = type <{ ptr, %class.btAlignedObjectArray.4, ptr, %struct.btDispatcherInfo, ptr, ptr, i8, [7 x i8] }>
%struct.btDispatcherInfo = type <{ float, i32, i32, float, i8, [7 x i8], ptr, i8, i8, i8, i8, float, i8, [3 x i8], float, i8, [7 x i8] }>
%class.btCollisionObject = type <{ ptr, %class.btTransform, %class.btTransform, %class.btVector3, %class.btVector3, %class.btVector3, i32, float, ptr, ptr, ptr, ptr, i32, i32, i32, i32, i32, float, float, float, float, float, float, float, i32, [4 x i8], ptr, i32, i32, i32, float, float, float, i32, [4 x i8], %class.btAlignedObjectArray.9, i32, %class.btVector3, [4 x i8] }>
%class.btTransform = type { %class.btMatrix3x3, %class.btVector3 }
%class.btMatrix3x3 = type { [3 x %class.btVector3] }
%class.btAlignedObjectArray.9 = type <{ %class.btAlignedAllocator.10, [3 x i8], i32, i32, [4 x i8], ptr, i8, [7 x i8] }>
%class.btAlignedAllocator.10 = type { i8 }
%struct.btElement = type { i32, i32 }

; Function Attrs: mustprogress nounwind uwtable
define linkonce_odr dso_local noundef nonnull align 4 dereferenceable(8) ptr @_ZN20btAlignedObjectArrayI9btElementEixEi(ptr noundef nonnull align 8 dereferenceable(25) %this, i32 noundef %n) #1 comdat align 2 {
entry:
  %this.addr = alloca ptr, align 8
  %n.addr = alloca i32, align 4
  store ptr %this, ptr %this.addr, align 8
  store i32 %n, ptr %n.addr, align 4
  %this1 = load ptr, ptr %this.addr, align 8
  %m_data = getelementptr inbounds %class.btAlignedObjectArray, ptr %this1, i32 0, i32 5
  %0 = load ptr, ptr %m_data, align 8
  %1 = load i32, ptr %n.addr, align 4
  %idxprom = sext i32 %1 to i64
  %arrayidx = getelementptr inbounds %struct.btElement, ptr %0, i64 %idxprom
  ret ptr %arrayidx
}

; Function Attrs: mustprogress nounwind uwtable
define linkonce_odr dso_local void @_ZN17btCollisionObject14setCompanionIdEi(ptr noundef nonnull align 8 dereferenceable(372) %this, i32 noundef %id) #1 comdat align 2 {
entry:
  %this.addr = alloca ptr, align 8
  %id.addr = alloca i32, align 4
  store ptr %this, ptr %this.addr, align 8
  store i32 %id, ptr %id.addr, align 4
  %this1 = load ptr, ptr %this.addr, align 8
  %0 = load i32, ptr %id.addr, align 4
  %m_companionId = getelementptr inbounds %class.btCollisionObject, ptr %this1, i32 0, i32 14
  store i32 %0, ptr %m_companionId, align 8
  ret void
}

; Function Attrs: mustprogress nounwind uwtable
define linkonce_odr dso_local noundef nonnull align 4 dereferenceable(8) ptr @_ZN11btUnionFind10getElementEi(ptr noundef nonnull align 8 dereferenceable(32) %this, i32 noundef %index) #1 comdat align 2 {
entry:
  %this.addr = alloca ptr, align 8
  %index.addr = alloca i32, align 4
  store ptr %this, ptr %this.addr, align 8
  store i32 %index, ptr %index.addr, align 4
  %this1 = load ptr, ptr %this.addr, align 8
  %m_elements = getelementptr inbounds %class.btUnionFind, ptr %this1, i32 0, i32 0
  %0 = load i32, ptr %index.addr, align 4
  %call = call noundef nonnull align 4 dereferenceable(8) ptr @_ZN20btAlignedObjectArrayI9btElementEixEi(ptr noundef nonnull align 8 dereferenceable(25) %m_elements, i32 noundef %0)
  ret ptr %call
}

; Function Attrs: mustprogress nounwind uwtable
define linkonce_odr dso_local void @_ZN17btCollisionObject12setIslandTagEi(ptr noundef nonnull align 8 dereferenceable(372) %this, i32 noundef %tag) #1 comdat align 2 {
entry:
  %this.addr = alloca ptr, align 8
  %tag.addr = alloca i32, align 4
  store ptr %this, ptr %this.addr, align 8
  store i32 %tag, ptr %tag.addr, align 4
  %this1 = load ptr, ptr %this.addr, align 8
  %0 = load i32, ptr %tag.addr, align 4
  %m_islandTag1 = getelementptr inbounds %class.btCollisionObject, ptr %this1, i32 0, i32 13
  store i32 %0, ptr %m_islandTag1, align 4
  ret void
}

; Function Attrs: mustprogress nounwind uwtable
define linkonce_odr dso_local noundef i32 @_ZN11btUnionFind4findEi(ptr noundef nonnull align 8 dereferenceable(32) %this, i32 noundef %x) #1 comdat align 2 {
entry:
  %this.addr = alloca ptr, align 8
  %x.addr = alloca i32, align 4
  %elementPtr = alloca ptr, align 8
  store ptr %this, ptr %this.addr, align 8
  store i32 %x, ptr %x.addr, align 4
  %this1 = load ptr, ptr %this.addr, align 8
  br label %while.cond

while.cond:                                       ; preds = %while.body, %entry
  %0 = load i32, ptr %x.addr, align 4
  %m_elements = getelementptr inbounds %class.btUnionFind, ptr %this1, i32 0, i32 0
  %1 = load i32, ptr %x.addr, align 4
  %call = call noundef nonnull align 4 dereferenceable(8) ptr @_ZN20btAlignedObjectArrayI9btElementEixEi(ptr noundef nonnull align 8 dereferenceable(25) %m_elements, i32 noundef %1)
  %m_id = getelementptr inbounds %struct.btElement, ptr %call, i32 0, i32 0
  %2 = load i32, ptr %m_id, align 4
  %cmp = icmp ne i32 %0, %2
  br i1 %cmp, label %while.body, label %while.end

while.body:                                       ; preds = %while.cond
  %m_elements2 = getelementptr inbounds %class.btUnionFind, ptr %this1, i32 0, i32 0
  %m_elements3 = getelementptr inbounds %class.btUnionFind, ptr %this1, i32 0, i32 0
  %3 = load i32, ptr %x.addr, align 4
  %call4 = call noundef nonnull align 4 dereferenceable(8) ptr @_ZN20btAlignedObjectArrayI9btElementEixEi(ptr noundef nonnull align 8 dereferenceable(25) %m_elements3, i32 noundef %3)
  %m_id5 = getelementptr inbounds %struct.btElement, ptr %call4, i32 0, i32 0
  %4 = load i32, ptr %m_id5, align 4
  %call6 = call noundef nonnull align 4 dereferenceable(8) ptr @_ZN20btAlignedObjectArrayI9btElementEixEi(ptr noundef nonnull align 8 dereferenceable(25) %m_elements2, i32 noundef %4)
  store ptr %call6, ptr %elementPtr, align 8
  %5 = load ptr, ptr %elementPtr, align 8
  %m_id7 = getelementptr inbounds %struct.btElement, ptr %5, i32 0, i32 0
  %6 = load i32, ptr %m_id7, align 4
  %m_elements8 = getelementptr inbounds %class.btUnionFind, ptr %this1, i32 0, i32 0
  %7 = load i32, ptr %x.addr, align 4
  %call9 = call noundef nonnull align 4 dereferenceable(8) ptr @_ZN20btAlignedObjectArrayI9btElementEixEi(ptr noundef nonnull align 8 dereferenceable(25) %m_elements8, i32 noundef %7)
  %m_id10 = getelementptr inbounds %struct.btElement, ptr %call9, i32 0, i32 0
  store i32 %6, ptr %m_id10, align 4
  %8 = load ptr, ptr %elementPtr, align 8
  %m_id11 = getelementptr inbounds %struct.btElement, ptr %8, i32 0, i32 0
  %9 = load i32, ptr %m_id11, align 4
  store i32 %9, ptr %x.addr, align 4
  br label %while.cond, !llvm.loop !9

while.end:                                        ; preds = %while.cond
  %10 = load i32, ptr %x.addr, align 4
  ret i32 %10
}

; Function Attrs: mustprogress nounwind uwtable
define linkonce_odr dso_local noundef zeroext i1 @_ZNK17btCollisionObject25isStaticOrKinematicObjectEv(ptr noundef nonnull align 8 dereferenceable(372) %this) #1 comdat align 2 {
entry:
  %this.addr = alloca ptr, align 8
  store ptr %this, ptr %this.addr, align 8
  %this1 = load ptr, ptr %this.addr, align 8
  %m_collisionFlags = getelementptr inbounds %class.btCollisionObject, ptr %this1, i32 0, i32 12
  %0 = load i32, ptr %m_collisionFlags, align 8
  %and = and i32 %0, 3
  %cmp = icmp ne i32 %and, 0
  ret i1 %cmp
}

; Function Attrs: mustprogress nounwind uwtable
define linkonce_odr dso_local noundef nonnull align 8 dereferenceable(8) ptr @_ZN20btAlignedObjectArrayIP17btCollisionObjectEixEi(ptr noundef nonnull align 8 dereferenceable(25) %this, i32 noundef %n) #1 comdat align 2 {
entry:
  %this.addr = alloca ptr, align 8
  %n.addr = alloca i32, align 4
  store ptr %this, ptr %this.addr, align 8
  store i32 %n, ptr %n.addr, align 4
  %this1 = load ptr, ptr %this.addr, align 8
  %m_data = getelementptr inbounds %class.btAlignedObjectArray.4, ptr %this1, i32 0, i32 5
  %0 = load ptr, ptr %m_data, align 8
  %1 = load i32, ptr %n.addr, align 4
  %idxprom = sext i32 %1 to i64
  %arrayidx = getelementptr inbounds ptr, ptr %0, i64 %idxprom
  ret ptr %arrayidx
}

; Function Attrs: mustprogress nounwind uwtable
define linkonce_odr dso_local noundef i32 @_ZNK20btAlignedObjectArrayIP17btCollisionObjectE4sizeEv(ptr noundef nonnull align 8 dereferenceable(25) %this) #1 comdat align 2 {
entry:
  %this.addr = alloca ptr, align 8
  store ptr %this, ptr %this.addr, align 8
  %this1 = load ptr, ptr %this.addr, align 8
  %m_size = getelementptr inbounds %class.btAlignedObjectArray.4, ptr %this1, i32 0, i32 2
  %0 = load i32, ptr %m_size, align 4
  ret i32 %0
}

; Function Attrs: mustprogress nounwind uwtable
define linkonce_odr dso_local noundef nonnull align 8 dereferenceable(25) ptr @_ZN16btCollisionWorld23getCollisionObjectArrayEv(ptr noundef nonnull align 8 dereferenceable(121) %this) #1 comdat align 2 {
entry:
  %this.addr = alloca ptr, align 8
  store ptr %this, ptr %this.addr, align 8
  %this1 = load ptr, ptr %this.addr, align 8
  %m_collisionObjects = getelementptr inbounds %class.btCollisionWorld, ptr %this1, i32 0, i32 1
  ret ptr %m_collisionObjects
}

; Function Attrs: mustprogress uwtable
define dso_local void @_ZN25btSimulationIslandManager26storeIslandActivationStateEP16btCollisionWorld(ptr noundef nonnull align 8 dereferenceable(105) %this, ptr noundef %colWorld) unnamed_addr #2 align 2 {
entry:
  %this.addr = alloca ptr, align 8
  %colWorld.addr = alloca ptr, align 8
  %index = alloca i32, align 4
  %i = alloca i32, align 4
  %collisionObject = alloca ptr, align 8
  store ptr %this, ptr %this.addr, align 8
  store ptr %colWorld, ptr %colWorld.addr, align 8
  %this1 = load ptr, ptr %this.addr, align 8
  store i32 0, ptr %index, align 4
  store i32 0, ptr %i, align 4
  br label %for.cond

for.cond:                                         ; preds = %for.inc, %entry
  %0 = load i32, ptr %i, align 4
  %1 = load ptr, ptr %colWorld.addr, align 8
  %call = call noundef nonnull align 8 dereferenceable(25) ptr @_ZN16btCollisionWorld23getCollisionObjectArrayEv(ptr noundef nonnull align 8 dereferenceable(121) %1)
  %call2 = call noundef i32 @_ZNK20btAlignedObjectArrayIP17btCollisionObjectE4sizeEv(ptr noundef nonnull align 8 dereferenceable(25) %call)
  %cmp = icmp slt i32 %0, %call2
  br i1 %cmp, label %for.body, label %for.end

for.body:                                         ; preds = %for.cond
  %2 = load ptr, ptr %colWorld.addr, align 8
  %call3 = call noundef nonnull align 8 dereferenceable(25) ptr @_ZN16btCollisionWorld23getCollisionObjectArrayEv(ptr noundef nonnull align 8 dereferenceable(121) %2)
  %3 = load i32, ptr %i, align 4
  %call4 = call noundef nonnull align 8 dereferenceable(8) ptr @_ZN20btAlignedObjectArrayIP17btCollisionObjectEixEi(ptr noundef nonnull align 8 dereferenceable(25) %call3, i32 noundef %3)
  %4 = load ptr, ptr %call4, align 8
  store ptr %4, ptr %collisionObject, align 8
  %5 = load ptr, ptr %collisionObject, align 8
  %call5 = call noundef zeroext i1 @_ZNK17btCollisionObject25isStaticOrKinematicObjectEv(ptr noundef nonnull align 8 dereferenceable(372) %5)
  br i1 %call5, label %if.else, label %if.then

if.then:                                          ; preds = %for.body
  %6 = load ptr, ptr %collisionObject, align 8
  %m_unionFind = getelementptr inbounds %class.btSimulationIslandManager, ptr %this1, i32 0, i32 1
  %7 = load i32, ptr %index, align 4
  %call6 = call noundef i32 @_ZN11btUnionFind4findEi(ptr noundef nonnull align 8 dereferenceable(32) %m_unionFind, i32 noundef %7)
  call void @_ZN17btCollisionObject12setIslandTagEi(ptr noundef nonnull align 8 dereferenceable(372) %6, i32 noundef %call6)
  %8 = load i32, ptr %i, align 4
  %m_unionFind7 = getelementptr inbounds %class.btSimulationIslandManager, ptr %this1, i32 0, i32 1
  %9 = load i32, ptr %index, align 4
  %call8 = call noundef nonnull align 4 dereferenceable(8) ptr @_ZN11btUnionFind10getElementEi(ptr noundef nonnull align 8 dereferenceable(32) %m_unionFind7, i32 noundef %9)
  %m_sz = getelementptr inbounds %struct.btElement, ptr %call8, i32 0, i32 1
  store i32 %8, ptr %m_sz, align 4
  %10 = load ptr, ptr %collisionObject, align 8
  call void @_ZN17btCollisionObject14setCompanionIdEi(ptr noundef nonnull align 8 dereferenceable(372) %10, i32 noundef -1)
  %11 = load i32, ptr %index, align 4
  %inc = add nsw i32 %11, 1
  store i32 %inc, ptr %index, align 4
  br label %if.end

if.else:                                          ; preds = %for.body
  %12 = load ptr, ptr %collisionObject, align 8
  call void @_ZN17btCollisionObject12setIslandTagEi(ptr noundef nonnull align 8 dereferenceable(372) %12, i32 noundef -1)
  %13 = load ptr, ptr %collisionObject, align 8
  call void @_ZN17btCollisionObject14setCompanionIdEi(ptr noundef nonnull align 8 dereferenceable(372) %13, i32 noundef -2)
  br label %if.end

if.end:                                           ; preds = %if.else, %if.then
  br label %for.inc

for.inc:                                          ; preds = %if.end
  %14 = load i32, ptr %i, align 4
  %inc9 = add nsw i32 %14, 1
  store i32 %inc9, ptr %i, align 4
  br label %for.cond, !llvm.loop !8

for.end:                                          ; preds = %for.cond
  ret void
}