; Function Attrs: mustprogress nofree norecurse nosync nounwind memory(readwrite, inaccessiblemem: none) uwtable
define dso_local void @_ZN25btSimulationIslandManager26storeIslandActivationStateEP16btCollisionWorld(ptr nocapture noundef nonnull readonly align 8 dereferenceable(105) %this, ptr nocapture noundef readonly %colWorld) unnamed_addr #5 align 2 {
entry:
  %m_size.i = getelementptr inbounds i8, ptr %colWorld, i64 12
  %0 = load i32, ptr %m_size.i, align 4
  %cmp17 = icmp sgt i32 %0, 0
  br i1 %cmp17, label %for.body.lr.ph, label %for.end

for.body.lr.ph:                                   ; preds = %entry
  %m_data.i = getelementptr inbounds i8, ptr %colWorld, i64 24
  %m_data.i.i = getelementptr inbounds i8, ptr %this, i64 24
  br label %for.body

for.body:                                         ; preds = %for.body.lr.ph, %for.inc
  %indvars.iv = phi i64 [ 0, %for.body.lr.ph ], [ %indvars.iv.next, %for.inc ]
  %index.019 = phi i32 [ 0, %for.body.lr.ph ], [ %index.1, %for.inc ]
  %1 = load ptr, ptr %m_data.i, align 8
  %arrayidx.i = getelementptr inbounds ptr, ptr %1, i64 %indvars.iv
  %2 = load ptr, ptr %arrayidx.i, align 8
  %m_collisionFlags.i = getelementptr inbounds i8, ptr %2, i64 224
  %3 = load i32, ptr %m_collisionFlags.i, align 8
  %and.i = and i32 %3, 3
  %cmp.i.not = icmp eq i32 %and.i, 0
  br i1 %cmp.i.not, label %if.then, label %if.else

if.then:                                          ; preds = %for.body
  %4 = load ptr, ptr %m_data.i.i, align 8
  %idxprom.i15.i = sext i32 %index.019 to i64
  %arrayidx.i16.i = getelementptr inbounds %struct.btElement, ptr %4, i64 %idxprom.i15.i
  %5 = load i32, ptr %arrayidx.i16.i, align 4
  %cmp.not17.i = icmp eq i32 %5, %index.019
  br i1 %cmp.not17.i, label %_ZN11btUnionFind4findEi.exit, label %while.body.i

while.body.i:                                     ; preds = %if.then, %while.body.i
  %6 = phi i32 [ %10, %while.body.i ], [ %5, %if.then ]
  %arrayidx.i18.i = phi ptr [ %arrayidx.i.i, %while.body.i ], [ %arrayidx.i16.i, %if.then ]
  %7 = phi ptr [ %9, %while.body.i ], [ %4, %if.then ]
  %idxprom.i10.i = sext i32 %6 to i64
  %arrayidx.i11.i = getelementptr inbounds %struct.btElement, ptr %7, i64 %idxprom.i10.i
  %8 = load i32, ptr %arrayidx.i11.i, align 4
  store i32 %8, ptr %arrayidx.i18.i, align 4
  %9 = load ptr, ptr %m_data.i.i, align 8
  %idxprom.i.i = sext i32 %8 to i64
  %arrayidx.i.i = getelementptr inbounds %struct.btElement, ptr %9, i64 %idxprom.i.i
  %10 = load i32, ptr %arrayidx.i.i, align 4
  %cmp.not.i = icmp eq i32 %8, %10
  br i1 %cmp.not.i, label %_ZN11btUnionFind4findEi.exit, label %while.body.i, !llvm.loop !5

_ZN11btUnionFind4findEi.exit:                     ; preds = %while.body.i, %if.then
  %x.addr.0.lcssa.i = phi i32 [ %index.019, %if.then ], [ %8, %while.body.i ]
  %m_islandTag1.i = getelementptr inbounds i8, ptr %2, i64 228
  store i32 %x.addr.0.lcssa.i, ptr %m_islandTag1.i, align 4
  %11 = load ptr, ptr %m_data.i.i, align 8
  %m_sz = getelementptr inbounds %struct.btElement, ptr %11, i64 %idxprom.i15.i, i32 1
  %12 = trunc i64 %indvars.iv to i32
  store i32 %12, ptr %m_sz, align 4
  %m_companionId.i = getelementptr inbounds i8, ptr %2, i64 232
  store i32 -1, ptr %m_companionId.i, align 8
  %inc = add nsw i32 %index.019, 1
  br label %for.inc

if.else:                                          ; preds = %for.body
  %m_islandTag1.i15 = getelementptr inbounds i8, ptr %2, i64 228
  store i32 -1, ptr %m_islandTag1.i15, align 4
  %m_companionId.i16 = getelementptr inbounds i8, ptr %2, i64 232
  store i32 -2, ptr %m_companionId.i16, align 8
  br label %for.inc

for.inc:                                          ; preds = %_ZN11btUnionFind4findEi.exit, %if.else
  %index.1 = phi i32 [ %index.019, %if.else ], [ %inc, %_ZN11btUnionFind4findEi.exit ]
  %indvars.iv.next = add nuw nsw i64 %indvars.iv, 1
  %13 = load i32, ptr %m_size.i, align 4
  %14 = sext i32 %13 to i64
  %cmp = icmp slt i64 %indvars.iv.next, %14
  br i1 %cmp, label %for.body, label %for.end, !llvm.loop !9

for.end:                                          ; preds = %for.inc, %entry
  ret void
}